Certificate:
    Data:
        Version: 3 (0x2)
        Serial Number: 37 (0x25)
    Signature Algorithm: sha256WithRSAEncryption
        Issuer: C=US, ST=Maryland, L=Gaithersburg, O=Sample CA for NIST - For Testing Only, CN=sampleca.nist.gov/emailAddress=alan.viars@nist.gov
        Validity
            Not Before: Sep 10 15:46:24 2015 GMT
            Not After : Sep  9 15:46:24 2017 GMT
        Subject: C=US, ST=MD, L=Gaithersburg, O=NIST, CN=nist.gov/emailAddress=nist.gov
        Subject Public Key Info:
            Public Key Algorithm: rsaEncryption
                Public-Key: (2048 bit)
                Modulus:
                    00:a7:cb:60:6d:a6:f3:21:3e:19:8f:af:d7:b8:5c:
                    30:47:29:d5:51:78:ad:04:12:3e:46:0e:29:35:4c:
                    02:b5:8c:af:68:a4:f3:4c:66:aa:b9:c6:23:01:95:
                    e3:f4:48:3c:42:9c:1e:5e:f3:c4:5c:92:55:02:b3:
                    08:e3:81:4d:ae:ca:4a:cd:fe:c9:43:8b:b0:77:8a:
                    d7:19:0b:d1:a2:3d:29:7a:10:a1:14:63:56:ee:65:
                    3b:5b:9b:aa:63:0b:c2:40:92:98:34:8e:04:27:eb:
                    75:de:ad:27:4f:86:35:d9:c8:e0:a1:57:9b:f1:d9:
                    0e:75:5f:f3:0f:05:4d:fa:a6:f8:c9:47:e5:23:ba:
                    07:0a:a3:03:71:14:50:69:fa:59:ef:a6:65:67:c8:
                    26:ef:3c:32:84:33:c4:03:05:7c:54:bb:20:ee:34:
                    88:aa:1c:18:90:c7:0f:80:e5:ab:61:56:78:be:56:
                    c7:e0:4b:02:40:0c:7a:db:ef:86:ab:e4:4e:48:7d:
                    13:f7:ee:0a:46:13:12:87:19:e9:5a:2b:a4:50:97:
                    3d:43:5c:21:f2:cc:ba:da:1b:9e:35:3d:d0:f0:97:
                    2e:00:bb:51:97:db:14:0c:6d:ff:00:2b:aa:4d:5b:
                    ba:07:17:88:b9:1d:65:ae:72:e2:c4:97:0f:84:2b:
                    cc:4f
                Exponent: 65537 (0x10001)
        X509v3 extensions:
            X509v3 Basic Constraints: critical
                CA:TRUE
            X509v3 Subject Alternative Name: 
                DNS:nist.gov
            X509v3 Subject Key Identifier: 
                E4:5D:87:23:D6:5E:FF:85:0C:96:E3:03:BC:D2:BC:B9:64:E4:13:0A
            X509v3 Authority Key Identifier: 
                keyid:0E:9C:9C:1E:1D:DD:A9:9A:F4:93:E6:9C:4E:81:BE:23:7D:4F:6D:BD
                DirName:/C=US/ST=Maryland/L=Gaithersburg/O=Sample CA for NIST - For Testing Only/CN=sampleca.nist.gov/emailAddress=alan.viars@nist.gov
                serial:F9:2C:0A:A0:5D:43:8E:FB

            X509v3 Key Usage: 
                Digital Signature, Certificate Sign, CRL Sign
            X509v3 CRL Distribution Points: 

                Full Name:
                  URI:http://sampleca.nist.gov/crl/sampleca.nist.gov.crl

            Authority Information Access: 
                CA Issuers - URI:http://sampleca.nist.gov/aia/sampleca.nist.gov.der

    Signature Algorithm: sha256WithRSAEncryption
         94:89:f9:d5:04:2b:07:b2:7a:d8:36:6f:ab:8d:54:b1:7a:14:
         32:1d:8b:65:94:aa:c5:36:f8:d0:a7:71:a2:b5:8b:6b:f4:e8:
         30:f7:e9:2a:84:56:cc:b4:f1:a5:8c:14:29:8b:13:59:33:be:
         28:d2:84:89:2c:e0:70:83:19:94:90:6d:da:d6:c5:68:5f:de:
         69:b3:9c:e2:b5:d4:bd:73:8f:bb:3a:d2:cc:75:7d:e8:c2:ef:
         b1:1c:1a:93:a7:a2:e2:e9:f7:f3:b5:bc:dc:af:b3:e0:a3:fa:
         7f:f5:0c:94:40:04:a0:19:e5:d3:6b:37:74:52:73:41:93:da:
         fe:5f:f8:b3:41:5c:90:d6:97:b4:c0:a5:e4:57:3e:41:92:73:
         f9:e9:6a:33:46:6c:3c:84:d8:aa:e1:a1:b6:ff:48:3a:93:4d:
         65:51:9a:6a:46:ea:c0:0e:a4:59:a2:5a:f2:f8:19:df:47:d2:
         88:c3:52:b4:7c:86:e6:4c:38:ad:53:7c:7d:cf:38:46:73:19:
         f7:59:8a:ba:24:a2:1c:72:05:a9:8e:50:3c:32:12:4b:24:c2:
         49:03:00:73:77:c0:6b:2b:38:34:47:59:b5:a5:24:25:02:95:
         96:48:8e:d6:2e:be:95:75:7d:36:96:a6:75:2f:fe:5e:19:35:
         50:f2:4f:3e:58:05:ae:9c:58:f9:e1:30:f0:ad:9e:5b:3a:78:
         76:3e:e0:9a:4a:be:8d:b7:10:f1:08:6c:e8:2a:c3:b7:1b:38:
         47:0b:f4:90:f5:4a:7c:6e:65:32:24:0f:0f:4f:f1:9e:30:b0:
         6f:37:c1:f4:29:3c:1d:43:8f:78:c2:8f:38:c0:38:ab:b6:e1:
         61:1f:98:63:50:a7:99:b1:74:0d:9e:e8:54:96:e2:be:ee:a8:
         75:22:29:f1:5e:83:73:ce:a1:8a:1f:be:0c:64:f4:d5:d5:c1:
         bf:b3:9e:ad:00:82:7a:83:f7:e5:d6:05:dc:34:a7:62:5a:75:
         ca:b7:d9:97:1e:0c:fd:35:fa:14:0f:f5:24:b3:bd:53:e3:d2:
         3d:be:49:fd:5d:8a:c7:bc:fc:cb:8b:bd:65:1b:4b:95:b5:f6:
         0c:2f:a2:58:54:a5:09:b7:14:07:83:6e:13:13:34:c7:09:64:
         b7:fa:36:fb:bf:07:44:73:61:fe:4c:c8:3b:79:78:d6:a1:b9:
         61:6c:98:03:61:8e:ef:c7:8c:ea:80:f0:5e:1e:ba:d5:9b:ca:
         10:30:14:55:36:89:15:42:74:9a:2a:98:a3:9e:2e:65:b0:80:
         c8:5d:48:61:4d:59:78:61:84:dc:7a:b7:35:fe:2b:e3:78:26:
         7e:bb:21:43:d4:d6:cc:0c
-----BEGIN CERTIFICATE-----
MIIGWzCCBEOgAwIBAgIBJTANBgkqhkiG9w0BAQsFADCBpzELMAkGA1UEBhMCVVMx
ETAPBgNVBAgTCE1hcnlsYW5kMRUwEwYDVQQHEwxHYWl0aGVyc2J1cmcxLjAsBgNV
BAoTJVNhbXBsZSBDQSBmb3IgTklTVCAtIEZvciBUZXN0aW5nIE9ubHkxGjAYBgNV
BAMTEXNhbXBsZWNhLm5pc3QuZ292MSIwIAYJKoZIhvcNAQkBFhNhbGFuLnZpYXJz
QG5pc3QuZ292MB4XDTE1MDkxMDE1NDYyNFoXDTE3MDkwOTE1NDYyNFowbDELMAkG
A1UEBhMCVVMxCzAJBgNVBAgMAk1EMRUwEwYDVQQHDAxHYWl0aGVyc2J1cmcxDTAL
BgNVBAoMBE5JU1QxETAPBgNVBAMMCG5pc3QuZ292MRcwFQYJKoZIhvcNAQkBFghu
aXN0LmdvdjCCASIwDQYJKoZIhvcNAQEBBQADggEPADCCAQoCggEBAKfLYG2m8yE+
GY+v17hcMEcp1VF4rQQSPkYOKTVMArWMr2ik80xmqrnGIwGV4/RIPEKcHl7zxFyS
VQKzCOOBTa7KSs3+yUOLsHeK1xkL0aI9KXoQoRRjVu5lO1ubqmMLwkCSmDSOBCfr
dd6tJ0+GNdnI4KFXm/HZDnVf8w8FTfqm+MlH5SO6BwqjA3EUUGn6We+mZWfIJu88
MoQzxAMFfFS7IO40iKocGJDHD4Dlq2FWeL5Wx+BLAkAMetvvhqvkTkh9E/fuCkYT
EocZ6VorpFCXPUNcIfLMutobnjU90PCXLgC7UZfbFAxt/wArqk1bugcXiLkdZa5y
4sSXD4QrzE8CAwEAAaOCAcowggHGMA8GA1UdEwEB/wQFMAMBAf8wEwYDVR0RBAww
CoIIbmlzdC5nb3YwHQYDVR0OBBYEFORdhyPWXv+FDJbjA7zSvLlk5BMKMIHcBgNV
HSMEgdQwgdGAFA6cnB4d3ama9JPmnE6BviN9T229oYGtpIGqMIGnMQswCQYDVQQG
EwJVUzERMA8GA1UECBMITWFyeWxhbmQxFTATBgNVBAcTDEdhaXRoZXJzYnVyZzEu
MCwGA1UEChMlU2FtcGxlIENBIGZvciBOSVNUIC0gRm9yIFRlc3RpbmcgT25seTEa
MBgGA1UEAxMRc2FtcGxlY2EubmlzdC5nb3YxIjAgBgkqhkiG9w0BCQEWE2FsYW4u
dmlhcnNAbmlzdC5nb3aCCQD5LAqgXUOO+zALBgNVHQ8EBAMCAYYwQwYDVR0fBDww
OjA4oDagNIYyaHR0cDovL3NhbXBsZWNhLm5pc3QuZ292L2NybC9zYW1wbGVjYS5u
aXN0Lmdvdi5jcmwwTgYIKwYBBQUHAQEEQjBAMD4GCCsGAQUFBzAChjJodHRwOi8v
c2FtcGxlY2EubmlzdC5nb3YvYWlhL3NhbXBsZWNhLm5pc3QuZ292LmRlcjANBgkq
hkiG9w0BAQsFAAOCAgEAlIn51QQrB7J62DZvq41UsXoUMh2LZZSqxTb40KdxorWL
a/ToMPfpKoRWzLTxpYwUKYsTWTO+KNKEiSzgcIMZlJBt2tbFaF/eabOc4rXUvXOP
uzrSzHV96MLvsRwak6ei4un387W83K+z4KP6f/UMlEAEoBnl02s3dFJzQZPa/l/4
s0FckNaXtMCl5Fc+QZJz+elqM0ZsPITYquGhtv9IOpNNZVGaakbqwA6kWaJa8vgZ
30fSiMNStHyG5kw4rVN8fc84RnMZ91mKuiSiHHIFqY5QPDISSyTCSQMAc3fAays4
NEdZtaUkJQKVlkiO1i6+lXV9NpamdS/+Xhk1UPJPPlgFrpxY+eEw8K2eWzp4dj7g
mkq+jbcQ8Qhs6CrDtxs4Rwv0kPVKfG5lMiQPD0/xnjCwbzfB9Ck8HUOPeMKPOMA4
q7bhYR+YY1CnmbF0DZ7oVJbivu6odSIp8V6Dc86hih++DGT01dXBv7OerQCCeoP3
5dYF3DSnYlp1yrfZlx4M/TX6FA/1JLO9U+PSPb5J/V2Kx7z8y4u9ZRtLlbX2DC+i
WFSlCbcUB4NuExM0xwlkt/o2+78HRHNh/kzIO3l41qG5YWyYA2GO78eM6oDwXh66
1ZvKEDAUVTaJFUJ0miqYo54uZbCAyF1IYU1ZeGGE3Hq3Nf4r43gmfrshQ9TWzAw=
-----END CERTIFICATE-----
